target datalayout = "e-m:e-p270:32:32-p271:32:32-p272:64:64-i64:64-i128:128-f80:128-n8:16:32:64-S128"
target triple = "x86_64-unknown-linux-gnu"

%struct.iovec = type { ptr, i64 }
%struct.IOVDiscardUndo = type { ptr, %struct.iovec }

; Function Attrs: nounwind sspstrong uwtable
define dso_local i64 @iov_discard_front_undoable(ptr noundef %iov, ptr noundef %iov_cnt, i64 noundef %bytes, ptr noundef %undo) #0 {
entry:
  %iov.addr = alloca ptr, align 8
  %iov_cnt.addr = alloca ptr, align 8
  %bytes.addr = alloca i64, align 8
  %undo.addr = alloca ptr, align 8
  %total = alloca i64, align 8
  %cur = alloca ptr, align 8
  store ptr %iov, ptr %iov.addr, align 8
  store ptr %iov_cnt, ptr %iov_cnt.addr, align 8
  store i64 %bytes, ptr %bytes.addr, align 8
  store ptr %undo, ptr %undo.addr, align 8
  store i64 0, ptr %total, align 8
  %0 = load ptr, ptr %undo.addr, align 8
  %tobool = icmp ne ptr %0, null
  br i1 %tobool, label %if.then, label %if.end

if.then:                                          ; preds = %entry
  %1 = load ptr, ptr %undo.addr, align 8
  %modified_iov = getelementptr inbounds %struct.IOVDiscardUndo, ptr %1, i32 0, i32 0
  store ptr null, ptr %modified_iov, align 8
  br label %if.end

if.end:                                           ; preds = %if.then, %entry
  %2 = load ptr, ptr %iov.addr, align 8
  %3 = load ptr, ptr %2, align 8
  store ptr %3, ptr %cur, align 8
  br label %for.cond

for.cond:                                         ; preds = %for.inc, %if.end
  %4 = load ptr, ptr %iov_cnt.addr, align 8
  %5 = load i32, ptr %4, align 4
  %cmp = icmp ugt i32 %5, 0
  br i1 %cmp, label %for.body, label %for.end

for.body:                                         ; preds = %for.cond
  %6 = load ptr, ptr %cur, align 8
  %iov_len = getelementptr inbounds %struct.iovec, ptr %6, i32 0, i32 1
  %7 = load i64, ptr %iov_len, align 8
  %8 = load i64, ptr %bytes.addr, align 8
  %cmp1 = icmp ugt i64 %7, %8
  br i1 %cmp1, label %if.then2, label %if.end8

if.then2:                                         ; preds = %for.body
  %9 = load ptr, ptr %undo.addr, align 8
  %tobool3 = icmp ne ptr %9, null
  br i1 %tobool3, label %if.then4, label %if.end6

if.then4:                                         ; preds = %if.then2
  %10 = load ptr, ptr %cur, align 8
  %11 = load ptr, ptr %undo.addr, align 8
  %modified_iov5 = getelementptr inbounds %struct.IOVDiscardUndo, ptr %11, i32 0, i32 0
  store ptr %10, ptr %modified_iov5, align 8
  %12 = load ptr, ptr %undo.addr, align 8
  %orig = getelementptr inbounds %struct.IOVDiscardUndo, ptr %12, i32 0, i32 1
  %13 = load ptr, ptr %cur, align 8
  call void @llvm.memcpy.p0.p0.i64(ptr align 8 %orig, ptr align 8 %13, i64 16, i1 false)
  br label %if.end6

if.end6:                                          ; preds = %if.then4, %if.then2
  %14 = load i64, ptr %bytes.addr, align 8
  %15 = load ptr, ptr %cur, align 8
  %iov_base = getelementptr inbounds %struct.iovec, ptr %15, i32 0, i32 0
  %16 = load ptr, ptr %iov_base, align 8
  %add.ptr = getelementptr i8, ptr %16, i64 %14
  store ptr %add.ptr, ptr %iov_base, align 8
  %17 = load i64, ptr %bytes.addr, align 8
  %18 = load ptr, ptr %cur, align 8
  %iov_len7 = getelementptr inbounds %struct.iovec, ptr %18, i32 0, i32 1
  %19 = load i64, ptr %iov_len7, align 8
  %sub = sub i64 %19, %17
  store i64 %sub, ptr %iov_len7, align 8
  %20 = load i64, ptr %bytes.addr, align 8
  %21 = load i64, ptr %total, align 8
  %add = add i64 %21, %20
  store i64 %add, ptr %total, align 8
  br label %for.end

if.end8:                                          ; preds = %for.body
  %22 = load ptr, ptr %cur, align 8
  %iov_len9 = getelementptr inbounds %struct.iovec, ptr %22, i32 0, i32 1
  %23 = load i64, ptr %iov_len9, align 8
  %24 = load i64, ptr %bytes.addr, align 8
  %sub10 = sub i64 %24, %23
  store i64 %sub10, ptr %bytes.addr, align 8
  %25 = load ptr, ptr %cur, align 8
  %iov_len11 = getelementptr inbounds %struct.iovec, ptr %25, i32 0, i32 1
  %26 = load i64, ptr %iov_len11, align 8
  %27 = load i64, ptr %total, align 8
  %add12 = add i64 %27, %26
  store i64 %add12, ptr %total, align 8
  %28 = load ptr, ptr %iov_cnt.addr, align 8
  %29 = load i32, ptr %28, align 4
  %sub13 = sub i32 %29, 1
  store i32 %sub13, ptr %28, align 4
  br label %for.inc

for.inc:                                          ; preds = %if.end8
  %30 = load ptr, ptr %cur, align 8
  %incdec.ptr = getelementptr %struct.iovec, ptr %30, i32 1
  store ptr %incdec.ptr, ptr %cur, align 8
  br label %for.cond, !llvm.loop !25

for.end:                                          ; preds = %if.end6, %for.cond
  %31 = load ptr, ptr %cur, align 8
  %32 = load ptr, ptr %iov.addr, align 8
  store ptr %31, ptr %32, align 8
  %33 = load i64, ptr %total, align 8
  ret i64 %33
}

; Function Attrs: nounwind sspstrong uwtable
define dso_local i64 @iov_discard_front(ptr noundef %iov, ptr noundef %iov_cnt, i64 noundef %bytes) #0 {
entry:
  %iov.addr = alloca ptr, align 8
  %iov_cnt.addr = alloca ptr, align 8
  %bytes.addr = alloca i64, align 8
  store ptr %iov, ptr %iov.addr, align 8
  store ptr %iov_cnt, ptr %iov_cnt.addr, align 8
  store i64 %bytes, ptr %bytes.addr, align 8
  %0 = load ptr, ptr %iov.addr, align 8
  %1 = load ptr, ptr %iov_cnt.addr, align 8
  %2 = load i64, ptr %bytes.addr, align 8
  %call = call i64 @iov_discard_front_undoable(ptr noundef %0, ptr noundef %1, i64 noundef %2, ptr noundef null)
  ret i64 %call
}