; Function Attrs: nofree norecurse nosync nounwind sspstrong memory(readwrite, inaccessiblemem: none) uwtable
define dso_local i64 @iov_discard_front(ptr noundef captures(none) %iov, ptr noundef captures(none) %iov_cnt, i64 noundef %bytes) local_unnamed_addr #14 {
entry:
  %0 = load ptr, ptr %iov, align 8
  %.pr.i = load i32, ptr %iov_cnt, align 4
  %cmp.not27.i = icmp eq i32 %.pr.i, 0
  br i1 %cmp.not27.i, label %iov_discard_front_undoable.exit, label %for.body.i

for.body.i:                                       ; preds = %entry, %if.end8.i
  %cur.030.i = phi ptr [ %incdec.ptr.i, %if.end8.i ], [ %0, %entry ]
  %total.029.i = phi i64 [ %add12.i, %if.end8.i ], [ 0, %entry ]
  %bytes.addr.028.i = phi i64 [ %sub10.i, %if.end8.i ], [ %bytes, %entry ]
  %1 = phi i32 [ %sub13.i, %if.end8.i ], [ %.pr.i, %entry ]
  %iov_len.i = getelementptr inbounds nuw i8, ptr %cur.030.i, i64 8
  %2 = load i64, ptr %iov_len.i, align 8
  %cmp1.i = icmp ugt i64 %2, %bytes.addr.028.i
  br i1 %cmp1.i, label %if.then2.i, label %if.end8.i

if.then2.i:                                       ; preds = %for.body.i
  %iov_len.i.le = getelementptr inbounds nuw i8, ptr %cur.030.i, i64 8
  %3 = load ptr, ptr %cur.030.i, align 8
  %add.ptr.i = getelementptr i8, ptr %3, i64 %bytes.addr.028.i
  store ptr %add.ptr.i, ptr %cur.030.i, align 8
  %sub.i = sub nuw i64 %2, %bytes.addr.028.i
  store i64 %sub.i, ptr %iov_len.i.le, align 8
  %add.i = add i64 %bytes.addr.028.i, %total.029.i
  br label %iov_discard_front_undoable.exit

if.end8.i:                                        ; preds = %for.body.i
  %sub10.i = sub nuw i64 %bytes.addr.028.i, %2
  %add12.i = add i64 %2, %total.029.i
  %sub13.i = add i32 %1, -1
  store i32 %sub13.i, ptr %iov_cnt, align 4
  %incdec.ptr.i = getelementptr i8, ptr %cur.030.i, i64 16
  %cmp.not.i = icmp eq i32 %sub13.i, 0
  br i1 %cmp.not.i, label %iov_discard_front_undoable.exit, label %for.body.i, !llvm.loop !25

iov_discard_front_undoable.exit:                  ; preds = %if.end8.i, %entry, %if.then2.i
  %cur.023.i = phi ptr [ %cur.030.i, %if.then2.i ], [ %0, %entry ], [ %incdec.ptr.i, %if.end8.i ]
  %total.1.i = phi i64 [ %add.i, %if.then2.i ], [ 0, %entry ], [ %add12.i, %if.end8.i ]
  store ptr %cur.023.i, ptr %iov, align 8
  ret i64 %total.1.i
}